target datalayout = "e-m:e-p270:32:32-p271:32:32-p272:64:64-i64:64-f80:128-n8:16:32:64-S128"
target triple = "x86_64-pc-linux-gnu"

@.str = private unnamed_addr constant [5 x i8] c"%s%s\00", align 1

; Function Attrs: noinline nounwind uwtable
define dso_local void @into(i8* %0, i8* %1) #0 {
  %3 = alloca i8*, align 8
  %4 = alloca i8*, align 8
  %5 = alloca i32, align 4
  %6 = alloca i32, align 4
  %7 = alloca i32, align 4
  %8 = alloca i32, align 4
  %9 = alloca [10 x i8], align 1
  store i8* %0, i8** %3, align 8
  store i8* %1, i8** %4, align 8
  store i32 0, i32* %7, align 4
  store i32 0, i32* %8, align 4
  %10 = bitcast [10 x i8]* %9 to i8*
  call void @llvm.memset.p0i8.i64(i8* align 1 %10, i8 0, i64 10, i1 false)
  %11 = load i8*, i8** %3, align 8
  %12 = call i64 @strlen(i8* %11) #5
  %13 = trunc i64 %12 to i32
  store i32 %13, i32* %5, align 4
  store i32 1, i32* %6, align 4
  br label %14

14:                                               ; preds = %35, %2
  %15 = load i32, i32* %6, align 4
  %16 = load i32, i32* %5, align 4
  %17 = icmp slt i32 %15, %16
  br i1 %17, label %18, label %38

18:                                               ; preds = %14
  %19 = load i8*, i8** %3, align 8
  %20 = load i32, i32* %6, align 4
  %21 = sext i32 %20 to i64
  %22 = getelementptr inbounds i8, i8* %19, i64 %21
  %23 = load i8, i8* %22, align 1
  %24 = sext i8 %23 to i32
  %25 = load i8*, i8** %3, align 8
  %26 = load i32, i32* %7, align 4
  %27 = sext i32 %26 to i64
  %28 = getelementptr inbounds i8, i8* %25, i64 %27
  %29 = load i8, i8* %28, align 1
  %30 = sext i8 %29 to i32
  %31 = icmp sgt i32 %24, %30
  br i1 %31, label %32, label %34

32:                                               ; preds = %18
  %33 = load i32, i32* %6, align 4
  store i32 %33, i32* %7, align 4
  br label %34

34:                                               ; preds = %32, %18
  br label %35

35:                                               ; preds = %34
  %36 = load i32, i32* %6, align 4
  %37 = add nsw i32 %36, 1
  store i32 %37, i32* %6, align 4
  br label %14

38:                                               ; preds = %14
  %39 = load i32, i32* %7, align 4
  %40 = add nsw i32 %39, 1
  store i32 %40, i32* %6, align 4
  br label %41

41:                                               ; preds = %59, %38
  %42 = load i32, i32* %6, align 4
  %43 = load i32, i32* %5, align 4
  %44 = icmp slt i32 %42, %43
  br i1 %44, label %45, label %62

45:                                               ; preds = %41
  %46 = load i8*, i8** %3, align 8
  %47 = load i32, i32* %6, align 4
  %48 = sext i32 %47 to i64
  %49 = getelementptr inbounds i8, i8* %46, i64 %48
  %50 = load i8, i8* %49, align 1
  %51 = load i32, i32* %8, align 4
  %52 = add nsw i32 %51, 1
  store i32 %52, i32* %8, align 4
  %53 = sext i32 %51 to i64
  %54 = getelementptr inbounds [10 x i8], [10 x i8]* %9, i64 0, i64 %53
  store i8 %50, i8* %54, align 1
  %55 = load i8*, i8** %3, align 8
  %56 = load i32, i32* %6, align 4
  %57 = sext i32 %56 to i64
  %58 = getelementptr inbounds i8, i8* %55, i64 %57
  store i8 0, i8* %58, align 1
  br label %59

59:                                               ; preds = %45
  %60 = load i32, i32* %6, align 4
  %61 = add nsw i32 %60, 1
  store i32 %61, i32* %6, align 4
  br label %41

62:                                               ; preds = %41
  %63 = load i8*, i8** %3, align 8
  %64 = load i8*, i8** %4, align 8
  %65 = call i8* @strcat(i8* %63, i8* %64) #6
  %66 = load i8*, i8** %3, align 8
  %67 = getelementptr inbounds [10 x i8], [10 x i8]* %9, i64 0, i64 0
  %68 = call i8* @strcat(i8* %66, i8* %67) #6
  ret void
}

; Function Attrs: noinline nounwind uwtable
define dso_local void @main() #0 {
  %1 = alloca i32, align 4
  %2 = alloca [14 x i8], align 1
  %3 = alloca [4 x i8], align 1
  store i32 0, i32* %1, align 4
  br label %4

4:                                                ; preds = %17, %0
  %5 = load i32, i32* %1, align 4
  %6 = icmp slt i32 %5, 10
  br i1 %6, label %7, label %20

7:                                                ; preds = %4
  %8 = bitcast [14 x i8]* %2 to i8*
  call void @llvm.memset.p0i8.i64(i8* align 1 %8, i8 0, i64 14, i1 false)
  %9 = bitcast [4 x i8]* %3 to i8*
  call void @llvm.memset.p0i8.i64(i8* align 1 %9, i8 0, i64 4, i1 false)
  %10 = getelementptr inbounds [14 x i8], [14 x i8]* %2, i64 0, i64 0
  %11 = getelementptr inbounds [4 x i8], [4 x i8]* %3, i64 0, i64 0
  %12 = call i32 (i8*, ...) @__isoc99_scanf(i8* getelementptr inbounds ([5 x i8], [5 x i8]* @.str, i64 0, i64 0), i8* %10, i8* %11)
  %13 = getelementptr inbounds [14 x i8], [14 x i8]* %2, i64 0, i64 0
  %14 = getelementptr inbounds [4 x i8], [4 x i8]* %3, i64 0, i64 0
  call void @into(i8* %13, i8* %14)
  %15 = getelementptr inbounds [14 x i8], [14 x i8]* %2, i64 0, i64 0
  %16 = call i32 @puts(i8* %15)
  br label %17

17:                                               ; preds = %7
  %18 = load i32, i32* %1, align 4
  %19 = add nsw i32 %18, 1
  store i32 %19, i32* %1, align 4
  br label %4

20:                                               ; preds = %4
  ret void
}